target datalayout = "e-m:e-p270:32:32-p271:32:32-p272:64:64-i64:64-i128:128-f80:128-n8:16:32:64-S128"
target triple = "x86_64-pc-linux-gnu"

%struct.filter_prov_globals_st = type { ptr, ptr, [10 x %struct.anon], i32, i32, i64, i32 }
%struct.anon = type { i32, [6 x %struct.ossl_algorithm_st] }
%struct.ossl_algorithm_st = type { ptr, ptr, ptr, ptr }

@ourglobals = internal global %struct.filter_prov_globals_st zeroinitializer, align 8
@.str.1 = private unnamed_addr constant [29 x i8] c"../openssl/test/filterprov.c\00", align 1
@.str.3 = private unnamed_addr constant [19 x i8] c"globs->query_count\00", align 1
@.str.4 = private unnamed_addr constant [2 x i8] c"0\00", align 1

; Function Attrs: nounwind uwtable
define internal ptr @get_globals() #0 {
  ret ptr @ourglobals
}

; Function Attrs: nounwind uwtable
define internal void @filter_unquery(ptr noundef %0, i32 noundef %1, ptr noundef %2) #0 {
  %4 = alloca ptr, align 8
  %5 = alloca i32, align 4
  %6 = alloca ptr, align 8
  %7 = alloca ptr, align 8
  %8 = alloca i32, align 4
  %9 = alloca i32, align 4
  store ptr %0, ptr %4, align 8, !tbaa !13
  store i32 %1, ptr %5, align 4, !tbaa !28
  store ptr %2, ptr %6, align 8, !tbaa !33
  call void @llvm.lifetime.start.p0(i64 8, ptr %7) #7
  %10 = call ptr @get_globals()
  store ptr %10, ptr %7, align 8, !tbaa !31
  call void @llvm.lifetime.start.p0(i64 4, ptr %8) #7
  %11 = load ptr, ptr %7, align 8, !tbaa !31
  %12 = getelementptr inbounds nuw %struct.filter_prov_globals_st, ptr %11, i32 0, i32 5
  %13 = load i64, ptr %12, align 8, !tbaa !46
  %14 = call i32 @test_ulong_gt(ptr noundef @.str.1, i32 noundef 105, ptr noundef @.str.3, ptr noundef @.str.4, i64 noundef %13, i64 noundef 0)
  %15 = icmp ne i32 %14, 0
  br i1 %15, label %19, label %16

16:                                               ; preds = %3
  %17 = load ptr, ptr %7, align 8, !tbaa !31
  %18 = getelementptr inbounds nuw %struct.filter_prov_globals_st, ptr %17, i32 0, i32 6
  store i32 1, ptr %18, align 8, !tbaa !47
  br label %24

19:                                               ; preds = %3
  %20 = load ptr, ptr %7, align 8, !tbaa !31
  %21 = getelementptr inbounds nuw %struct.filter_prov_globals_st, ptr %20, i32 0, i32 5
  %22 = load i64, ptr %21, align 8, !tbaa !46
  %23 = add i64 %22, -1
  store i64 %23, ptr %21, align 8, !tbaa !46
  br label %24

24:                                               ; preds = %19, %16
  store i32 0, ptr %8, align 4, !tbaa !28
  br label %25

25:                                               ; preds = %43, %24
  %26 = load i32, ptr %8, align 4, !tbaa !28
  %27 = load ptr, ptr %7, align 8, !tbaa !31
  %28 = getelementptr inbounds nuw %struct.filter_prov_globals_st, ptr %27, i32 0, i32 3
  %29 = load i32, ptr %28, align 8, !tbaa !35
  %30 = icmp slt i32 %26, %29
  br i1 %30, label %31, label %46

31:                                               ; preds = %25
  %32 = load ptr, ptr %7, align 8, !tbaa !31
  %33 = getelementptr inbounds nuw %struct.filter_prov_globals_st, ptr %32, i32 0, i32 2
  %34 = load i32, ptr %8, align 4, !tbaa !28
  %35 = sext i32 %34 to i64
  %36 = getelementptr inbounds [10 x %struct.anon], ptr %33, i64 0, i64 %35
  %37 = getelementptr inbounds nuw %struct.anon, ptr %36, i32 0, i32 1
  %38 = getelementptr inbounds [6 x %struct.ossl_algorithm_st], ptr %37, i64 0, i64 0
  %39 = load ptr, ptr %6, align 8, !tbaa !33
  %40 = icmp eq ptr %38, %39
  br i1 %40, label %41, label %42

41:                                               ; preds = %31
  store i32 1, ptr %9, align 4
  br label %52

42:                                               ; preds = %31
  br label %43

43:                                               ; preds = %42
  %44 = load i32, ptr %8, align 4, !tbaa !28
  %45 = add nsw i32 %44, 1
  store i32 %45, ptr %8, align 4, !tbaa !28
  br label %25, !llvm.loop !53

46:                                               ; preds = %25
  %47 = load ptr, ptr %7, align 8, !tbaa !31
  %48 = getelementptr inbounds nuw %struct.filter_prov_globals_st, ptr %47, i32 0, i32 1
  %49 = load ptr, ptr %48, align 8, !tbaa !24
  %50 = load i32, ptr %5, align 4, !tbaa !28
  %51 = load ptr, ptr %6, align 8, !tbaa !33
  call void @OSSL_PROVIDER_unquery_operation(ptr noundef %49, i32 noundef %50, ptr noundef %51)
  store i32 0, ptr %9, align 4
  br label %52

52:                                               ; preds = %46, %41
  call void @llvm.lifetime.end.p0(i64 4, ptr %8) #7
  call void @llvm.lifetime.end.p0(i64 8, ptr %7) #7
  %53 = load i32, ptr %9, align 4
  switch i32 %53, label %55 [
    i32 0, label %54
    i32 1, label %54
  ]

54:                                               ; preds = %52, %52
  ret void

55:                                               ; preds = %52
  unreachable
}