; Function Attrs: nounwind uwtable
define internal void @filter_unquery(ptr readnone captures(none) %0, i32 noundef %1, ptr noundef %2) #0 {
  %4 = load i64, ptr getelementptr inbounds nuw (i8, ptr @ourglobals, i64 2024), align 8, !tbaa !35
  %5 = tail call i32 @test_ulong_gt(ptr noundef nonnull @.str.1, i32 noundef 105, ptr noundef nonnull @.str.3, ptr noundef nonnull @.str.4, i64 noundef %4, i64 noundef 0) #7
  %.not = icmp eq i32 %5, 0
  br i1 %.not, label %6, label %7

6:                                                ; preds = %3
  store i32 1, ptr getelementptr inbounds nuw (i8, ptr @ourglobals, i64 2032), align 8, !tbaa !37
  br label %10

7:                                                ; preds = %3
  %8 = load i64, ptr getelementptr inbounds nuw (i8, ptr @ourglobals, i64 2024), align 8, !tbaa !35
  %9 = add i64 %8, -1
  store i64 %9, ptr getelementptr inbounds nuw (i8, ptr @ourglobals, i64 2024), align 8, !tbaa !35
  br label %10

10:                                               ; preds = %7, %6
  %11 = load i32, ptr getelementptr inbounds nuw (i8, ptr @ourglobals, i64 2016), align 8, !tbaa !28
  %12 = icmp sgt i32 %11, 0
  br i1 %12, label %.lr.ph.preheader, label %._crit_edge

.lr.ph.preheader:                                 ; preds = %10
  %wide.trip.count = zext nneg i32 %11 to i64
  br label %.lr.ph

13:                                               ; preds = %.lr.ph
  %indvars.iv.next = add nuw nsw i64 %indvars.iv, 1
  %exitcond.not = icmp eq i64 %indvars.iv.next, %wide.trip.count
  br i1 %exitcond.not, label %._crit_edge, label %.lr.ph, !llvm.loop !38

.lr.ph:                                           ; preds = %.lr.ph.preheader, %13
  %indvars.iv = phi i64 [ 0, %.lr.ph.preheader ], [ %indvars.iv.next, %13 ]
  %.idx = mul nuw nsw i64 %indvars.iv, 200
  %gep = getelementptr inbounds nuw i8, ptr getelementptr inbounds nuw (i8, ptr @ourglobals, i64 24), i64 %.idx
  %14 = icmp eq ptr %gep, %2
  br i1 %14, label %.loopexit, label %13

._crit_edge:                                      ; preds = %13, %10
  %15 = load ptr, ptr getelementptr inbounds nuw (i8, ptr @ourglobals, i64 8), align 8, !tbaa !18
  tail call void @OSSL_PROVIDER_unquery_operation(ptr noundef %15, i32 noundef %1, ptr noundef %2) #7
  br label %.loopexit

.loopexit:                                        ; preds = %.lr.ph, %._crit_edge
  ret void
}